; Function Attrs: mustprogress nofree norecurse nosync nounwind willreturn memory(read, inaccessiblemem: none) uwtable
define noundef zeroext i1 @_ZNK6casadi16SparsityInternal7is_trilEb(ptr nocapture noundef nonnull readonly align 8 dereferenceable(56) %0, i1 noundef zeroext %1) local_unnamed_addr #11 align 2 {
  %3 = getelementptr inbounds i8, ptr %0, i64 24
  %4 = load ptr, ptr %3, align 8
  %5 = getelementptr inbounds i8, ptr %4, i64 16
  %6 = getelementptr inbounds i8, ptr %4, i64 8
  %7 = load i64, ptr %6, align 8
  %8 = getelementptr inbounds i64, ptr %5, i64 %7
  %9 = getelementptr inbounds i8, ptr %8, i64 8
  %10 = icmp slt i64 %7, 1
  br i1 %10, label %._crit_edge, label %.lr.ph

.lr.ph:                                           ; preds = %2
  %.pre27 = load i64, ptr %5, align 8
  br i1 %1, label %.lr.ph.split.us, label %.lr.ph.split

.lr.ph.split.us:                                  ; preds = %.lr.ph, %19
  %11 = phi i64 [ %15, %19 ], [ %.pre27, %.lr.ph ]
  %12 = phi i1 [ %20, %19 ], [ false, %.lr.ph ]
  %.01518.us = phi i64 [ %13, %19 ], [ 0, %.lr.ph ]
  %13 = add nuw nsw i64 %.01518.us, 1
  %14 = getelementptr inbounds i64, ptr %5, i64 %13
  %15 = load i64, ptr %14, align 8
  %.not.us = icmp eq i64 %11, %15
  br i1 %.not.us, label %19, label %16

16:                                               ; preds = %.lr.ph.split.us
  %17 = getelementptr inbounds i64, ptr %9, i64 %11
  %18 = load i64, ptr %17, align 8
  %.not17.us = icmp sgt i64 %18, %.01518.us
  br i1 %.not17.us, label %19, label %._crit_edge

19:                                               ; preds = %16, %.lr.ph.split.us
  %20 = icmp sge i64 %13, %7
  %exitcond26 = icmp eq i64 %13, %7
  br i1 %exitcond26, label %._crit_edge, label %.lr.ph.split.us, !llvm.loop !481

.lr.ph.split:                                     ; preds = %.lr.ph, %30
  %21 = phi i64 [ %25, %30 ], [ %.pre27, %.lr.ph ]
  %22 = phi i1 [ %31, %30 ], [ false, %.lr.ph ]
  %.01518 = phi i64 [ %23, %30 ], [ 0, %.lr.ph ]
  %23 = add nuw nsw i64 %.01518, 1
  %24 = getelementptr inbounds i64, ptr %5, i64 %23
  %25 = load i64, ptr %24, align 8
  %.not = icmp eq i64 %21, %25
  br i1 %.not, label %30, label %26

26:                                               ; preds = %.lr.ph.split
  %27 = getelementptr inbounds i64, ptr %9, i64 %21
  %28 = load i64, ptr %27, align 8
  %29 = icmp slt i64 %28, %.01518
  br i1 %29, label %._crit_edge, label %30

30:                                               ; preds = %.lr.ph.split, %26
  %31 = icmp sge i64 %23, %7
  %exitcond = icmp eq i64 %23, %7
  br i1 %exitcond, label %._crit_edge, label %.lr.ph.split, !llvm.loop !481

._crit_edge:                                      ; preds = %26, %30, %16, %19, %2
  %.lcssa = phi i1 [ true, %2 ], [ %20, %19 ], [ %12, %16 ], [ %31, %30 ], [ %22, %26 ]
  ret i1 %.lcssa
}